Certificate:
    Data:
        Version: 3 (0x2)
        Serial Number:
            c3:b9:5a:4e:ac:6f:db:2a
    Signature Algorithm: sha256WithRSAEncryption
        Issuer: C=AT, ST=Niederoesterreich, O=fab4minds IT GmbH, OU=fab4minds IT GmbH, CN=f4m/emailAddress=harald.falkner@fab4minds.com
        Validity
            Not Before: Dec  5 13:55:03 2016 GMT
            Not After : May 30 13:55:03 2048 GMT
        Subject: C=AT, ST=Niederoesterreich, O=fab4minds IT GmbH, OU=fab4minds IT GmbH, CN=f4m/emailAddress=harald.falkner@fab4minds.com
        Subject Public Key Info:
            Public Key Algorithm: rsaEncryption
                Public-Key: (2048 bit)
                Modulus:
                    00:d9:0f:b4:19:00:76:0c:c0:ab:31:29:da:00:1e:
                    e5:c4:cc:3c:b7:bc:9b:1d:ee:cc:fa:28:ae:60:c9:
                    45:aa:09:46:18:fd:fc:6d:32:6a:a3:b4:6c:b5:7c:
                    0d:0a:cb:96:fd:b4:d1:7f:5b:8a:5d:87:83:78:75:
                    ab:84:26:4a:f6:3b:fb:ec:08:63:1c:27:16:b8:0e:
                    9b:f0:5b:10:ae:2a:a0:6a:2a:b3:05:32:f2:b3:f5:
                    d3:ee:b5:59:b9:9b:1e:d7:1a:49:13:71:69:7e:b3:
                    14:5f:c0:73:5f:91:e4:04:3a:82:53:eb:43:3d:02:
                    fe:70:1e:09:32:c4:97:85:f7:ec:f5:46:1e:87:5a:
                    3b:f0:7f:2b:f1:37:a7:9e:e3:48:40:01:3d:b3:f4:
                    6c:3a:5a:f2:b6:e1:16:df:57:ee:8b:7a:5c:a1:e3:
                    e5:09:6c:17:eb:1d:16:36:92:69:df:97:bb:53:33:
                    e1:be:5c:5e:84:71:7d:b2:e9:ca:da:28:5a:6c:16:
                    df:c5:8e:a7:8e:b0:ba:ec:12:bd:fb:c9:b7:1e:58:
                    4e:4e:28:d5:08:99:b8:27:64:d1:1e:d7:a1:0c:c3:
                    27:f3:de:a4:8c:e2:ea:d4:27:12:b3:57:f0:8b:07:
                    de:62:dd:b7:dd:63:ce:bf:db:21:89:24:5c:51:13:
                    0d:f3
                Exponent: 65537 (0x10001)
        X509v3 extensions:
            X509v3 Subject Key Identifier: 
                93:31:07:A6:02:5F:E2:50:24:C4:93:0F:D0:ED:89:A0:D7:B3:97:4A
            X509v3 Authority Key Identifier: 
                keyid:93:31:07:A6:02:5F:E2:50:24:C4:93:0F:D0:ED:89:A0:D7:B3:97:4A

            X509v3 Basic Constraints: critical
                CA:TRUE
    Signature Algorithm: sha256WithRSAEncryption
         d2:a5:78:07:32:f2:4e:f4:4d:3e:20:84:ee:4f:46:7e:52:11:
         5d:a1:c4:e7:b6:d6:ca:58:e1:46:f2:b3:1a:a2:fc:b0:5c:bb:
         ba:ec:62:46:69:97:59:c7:67:da:30:ad:9d:e1:62:f0:d0:79:
         8f:b3:db:9e:61:f7:f0:06:0d:e3:83:4a:f8:64:c4:33:21:74:
         49:a4:6b:b7:55:07:9c:33:2e:01:23:a2:12:99:7d:be:36:d2:
         c2:af:1e:e5:b9:af:e9:20:e9:29:c5:42:77:26:87:b8:99:11:
         a4:b9:fd:5f:42:27:c4:35:bd:b8:81:cd:8f:49:d0:c3:92:b1:
         2b:13:4d:df:4e:9b:c8:79:b3:ed:c3:5c:25:6f:d2:87:ec:50:
         bd:5a:f1:e6:34:aa:2b:26:df:7b:dd:e4:47:d1:a5:83:40:aa:
         81:db:03:46:24:21:a0:50:7c:0e:10:a2:d0:09:3f:9e:c8:fe:
         da:94:08:ff:40:38:03:e1:50:48:8f:8c:6f:f1:51:8f:5b:5f:
         9c:1a:10:1b:3e:32:27:b1:06:19:8e:7d:4b:d7:0a:4f:5b:85:
         02:ef:e6:35:0c:fa:b8:7a:04:0c:38:10:0f:8f:61:95:cb:08:
         7a:e3:29:4b:a3:cd:3d:81:cd:83:3c:fb:17:49:61:ab:01:75:
         cf:27:3f:c0
-----BEGIN CERTIFICATE-----
MIIEEDCCAvigAwIBAgIJAMO5Wk6sb9sqMA0GCSqGSIb3DQEBCwUAMIGcMQswCQYD
VQQGEwJBVDEaMBgGA1UECAwRTmllZGVyb2VzdGVycmVpY2gxGjAYBgNVBAoMEWZh
YjRtaW5kcyBJVCBHbWJIMRowGAYDVQQLDBFmYWI0bWluZHMgSVQgR21iSDEMMAoG
A1UEAwwDZjRtMSswKQYJKoZIhvcNAQkBFhxoYXJhbGQuZmFsa25lckBmYWI0bWlu
ZHMuY29tMB4XDTE2MTIwNTEzNTUwM1oXDTQ4MDUzMDEzNTUwM1owgZwxCzAJBgNV
BAYTAkFUMRowGAYDVQQIDBFOaWVkZXJvZXN0ZXJyZWljaDEaMBgGA1UECgwRZmFi
NG1pbmRzIElUIEdtYkgxGjAYBgNVBAsMEWZhYjRtaW5kcyBJVCBHbWJIMQwwCgYD
VQQDDANmNG0xKzApBgkqhkiG9w0BCQEWHGhhcmFsZC5mYWxrbmVyQGZhYjRtaW5k
cy5jb20wggEiMA0GCSqGSIb3DQEBAQUAA4IBDwAwggEKAoIBAQDZD7QZAHYMwKsx
KdoAHuXEzDy3vJsd7sz6KK5gyUWqCUYY/fxtMmqjtGy1fA0Ky5b9tNF/W4pdh4N4
dauEJkr2O/vsCGMcJxa4DpvwWxCuKqBqKrMFMvKz9dPutVm5mx7XGkkTcWl+sxRf
wHNfkeQEOoJT60M9Av5wHgkyxJeF9+z1Rh6HWjvwfyvxN6ee40hAAT2z9Gw6WvK2
4RbfV+6Lelyh4+UJbBfrHRY2kmnfl7tTM+G+XF6EcX2y6craKFpsFt/FjqeOsLrs
Er37ybceWE5OKNUImbgnZNEe16EMwyfz3qSM4urUJxKzV/CLB95i3bfdY86/2yGJ
JFxREw3zAgMBAAGjUzBRMB0GA1UdDgQWBBSTMQemAl/iUCTEkw/Q7Ymg17OXSjAf
BgNVHSMEGDAWgBSTMQemAl/iUCTEkw/Q7Ymg17OXSjAPBgNVHRMBAf8EBTADAQH/
MA0GCSqGSIb3DQEBCwUAA4IBAQDSpXgHMvJO9E0+IITuT0Z+UhFdocTnttbKWOFG
8rMaovywXLu67GJGaZdZx2faMK2d4WLw0HmPs9ueYffwBg3jg0r4ZMQzIXRJpGu3
VQecMy4BI6ISmX2+NtLCrx7lua/pIOkpxUJ3Joe4mRGkuf1fQifENb24gc2PSdDD
krErE03fTpvIebPtw1wlb9KH7FC9WvHmNKorJt973eRH0aWDQKqB2wNGJCGgUHwO
EKLQCT+eyP7alAj/QDgD4VBIj4xv8VGPW1+cGhAbPjInsQYZjn1L1wpPW4UC7+Y1
DPq4egQMOBAPj2GVywh64ylLo809gc2DPPsXSWGrAXXPJz/A
-----END CERTIFICATE-----
